; Function Attrs: mustprogress nofree nounwind willreturn memory(read) uwtable
define dso_local noundef zeroext i1 @_ZNK4llvm11Instruction14isSafeToRemoveEv(ptr noundef nonnull align 8 dereferenceable(72) %0) local_unnamed_addr #8 align 2 {
  %2 = load i8, ptr %0, align 8
  %3 = icmp eq i8 %2, 85
  br i1 %3, label %4, label %6

4:                                                ; preds = %1
  %5 = tail call noundef zeroext i1 @_ZNK4llvm11Instruction18mayHaveSideEffectsEv(ptr noundef nonnull align 8 dereferenceable(72) %0) #22
  br i1 %5, label %_ZNK4llvm11Instruction7isEHPadEv.exit, label %.thread1

6:                                                ; preds = %1
  %7 = zext i8 %2 to i32
  %8 = add nsw i32 %7, -30
  %9 = icmp ult i32 %8, 11
  br i1 %9, label %_ZNK4llvm11Instruction7isEHPadEv.exit, label %10

10:                                               ; preds = %6
  %switch.tableidx = add i8 %2, -39
  %11 = icmp ult i8 %switch.tableidx, 57
  br i1 %11, label %switch.lookup, label %.thread1

.thread1:                                         ; preds = %10, %4
  br label %_ZNK4llvm11Instruction7isEHPadEv.exit

switch.lookup:                                    ; preds = %10
  %switch.cast = zext nneg i8 %switch.tableidx to i57
  %switch.downshift = lshr i57 72050996968161278, %switch.cast
  %switch.masked = trunc i57 %switch.downshift to i1
  br label %_ZNK4llvm11Instruction7isEHPadEv.exit

_ZNK4llvm11Instruction7isEHPadEv.exit:            ; preds = %switch.lookup, %.thread1, %6, %4
  %12 = phi i1 [ false, %6 ], [ false, %4 ], [ true, %.thread1 ], [ %switch.masked, %switch.lookup ]
  ret i1 %12
}